target datalayout = "e-m:e-p270:32:32-p271:32:32-p272:64:64-i64:64-i128:128-f80:128-n8:16:32:64-S128"
target triple = "x86_64-pc-linux-gnu"

%"class.pbrt::GeometricPrimitive" = type { %"class.pbrt::Shape", %"class.pbrt::Material", %"class.pbrt::Light", %"struct.pbrt::MediumInterface", %"class.pbrt::FloatTexture" }
%"class.pbrt::Shape" = type { %"class.pbrt::TaggedPointer.10" }
%"class.pbrt::TaggedPointer.10" = type { i64 }
%"class.pbrt::Material" = type { %"class.pbrt::TaggedPointer.11" }
%"class.pbrt::TaggedPointer.11" = type { i64 }
%"class.pbrt::Light" = type { %"class.pbrt::TaggedPointer.12" }
%"class.pbrt::TaggedPointer.12" = type { i64 }
%"struct.pbrt::MediumInterface" = type { %"class.pbrt::Medium", %"class.pbrt::Medium" }
%"class.pbrt::Medium" = type { %"class.pbrt::TaggedPointer.8" }
%"class.pbrt::TaggedPointer.8" = type { i64 }
%"class.pbrt::FloatTexture" = type { %"class.pbrt::TaggedPointer.13" }
%"class.pbrt::TaggedPointer.13" = type { i64 }

@_ZN4pbrtL15primitiveMemoryE = internal thread_local global i64 0, align 8

; Function Attrs: mustprogress nounwind uwtable
define linkonce_odr dso_local void @_ZN4pbrt13TaggedPointerIJNS_17HomogeneousMediumENS_10GridMediumENS_13RGBGridMediumENS_11CloudMediumENS_13NanoVDBMediumEEEC2ERKS6_(ptr noundef nonnull align 8 dereferenceable(8) %0, ptr noundef nonnull align 8 dereferenceable(8) %1) unnamed_addr #8 comdat align 2 {
  %3 = alloca ptr, align 8
  %4 = alloca ptr, align 8
  store ptr %0, ptr %3, align 8, !tbaa !249
  store ptr %1, ptr %4, align 8, !tbaa !249
  %5 = load ptr, ptr %3, align 8
  %6 = getelementptr inbounds nuw %"class.pbrt::TaggedPointer.8", ptr %5, i32 0, i32 0
  store i64 0, ptr %6, align 8, !tbaa !251
  %7 = load ptr, ptr %4, align 8, !tbaa !249
  %8 = getelementptr inbounds nuw %"class.pbrt::TaggedPointer.8", ptr %7, i32 0, i32 0
  %9 = load i64, ptr %8, align 8, !tbaa !251
  %10 = getelementptr inbounds nuw %"class.pbrt::TaggedPointer.8", ptr %5, i32 0, i32 0
  store i64 %9, ptr %10, align 8, !tbaa !251
  ret void
}

; Function Attrs: mustprogress nounwind uwtable
define linkonce_odr dso_local void @_ZN4pbrt13TaggedPointerIJNS_17FloatImageTextureENS_20GPUFloatImageTextureENS_15FloatMixTextureENS_24FloatDirectionMixTextureENS_18FloatScaledTextureENS_20FloatConstantTextureENS_18FloatBilerpTextureENS_24FloatCheckerboardTextureENS_16FloatDotsTextureENS_10FBmTextureENS_16FloatPtexTextureENS_19GPUFloatPtexTextureENS_12WindyTextureENS_15WrinkledTextureEEEC2ERKSF_(ptr noundef nonnull align 8 dereferenceable(8) %0, ptr noundef nonnull align 8 dereferenceable(8) %1) unnamed_addr #8 comdat align 2 {
  %3 = alloca ptr, align 8
  %4 = alloca ptr, align 8
  store ptr %0, ptr %3, align 8, !tbaa !72
  store ptr %1, ptr %4, align 8, !tbaa !72
  %5 = load ptr, ptr %3, align 8
  %6 = getelementptr inbounds nuw %"class.pbrt::TaggedPointer.13", ptr %5, i32 0, i32 0
  store i64 0, ptr %6, align 8, !tbaa !74
  %7 = load ptr, ptr %4, align 8, !tbaa !72
  %8 = getelementptr inbounds nuw %"class.pbrt::TaggedPointer.13", ptr %7, i32 0, i32 0
  %9 = load i64, ptr %8, align 8, !tbaa !74
  %10 = getelementptr inbounds nuw %"class.pbrt::TaggedPointer.13", ptr %5, i32 0, i32 0
  store i64 %9, ptr %10, align 8, !tbaa !74
  ret void
}

; Function Attrs: inlinehint mustprogress nounwind uwtable
define linkonce_odr dso_local void @_ZN4pbrt6MediumC2ERKS0_(ptr noundef nonnull align 8 dereferenceable(8) %0, ptr noundef nonnull align 8 dereferenceable(8) %1) unnamed_addr #3 comdat align 2 {
  %3 = alloca ptr, align 8
  %4 = alloca ptr, align 8
  store ptr %0, ptr %3, align 8, !tbaa !96
  store ptr %1, ptr %4, align 8, !tbaa !96
  %5 = load ptr, ptr %3, align 8
  %6 = load ptr, ptr %4, align 8, !tbaa !96
  call void @_ZN4pbrt13TaggedPointerIJNS_17HomogeneousMediumENS_10GridMediumENS_13RGBGridMediumENS_11CloudMediumENS_13NanoVDBMediumEEEC2ERKS6_(ptr noundef nonnull align 8 dereferenceable(8) %5, ptr noundef nonnull align 8 dereferenceable(8) %6)
  ret void
}

; Function Attrs: mustprogress nounwind uwtable
define linkonce_odr dso_local void @_ZN4pbrt13TaggedPointerIJNS_10PointLightENS_12DistantLightENS_15ProjectionLightENS_16GoniometricLightENS_9SpotLightENS_16DiffuseAreaLightENS_20UniformInfiniteLightENS_18ImageInfiniteLightENS_24PortalImageInfiniteLightEEEC2ERKSA_(ptr noundef nonnull align 8 dereferenceable(8) %0, ptr noundef nonnull align 8 dereferenceable(8) %1) unnamed_addr #8 comdat align 2 {
  %3 = alloca ptr, align 8
  %4 = alloca ptr, align 8
  store ptr %0, ptr %3, align 8, !tbaa !150
  store ptr %1, ptr %4, align 8, !tbaa !150
  %5 = load ptr, ptr %3, align 8
  %6 = getelementptr inbounds nuw %"class.pbrt::TaggedPointer.12", ptr %5, i32 0, i32 0
  store i64 0, ptr %6, align 8, !tbaa !152
  %7 = load ptr, ptr %4, align 8, !tbaa !150
  %8 = getelementptr inbounds nuw %"class.pbrt::TaggedPointer.12", ptr %7, i32 0, i32 0
  %9 = load i64, ptr %8, align 8, !tbaa !152
  %10 = getelementptr inbounds nuw %"class.pbrt::TaggedPointer.12", ptr %5, i32 0, i32 0
  store i64 %9, ptr %10, align 8, !tbaa !152
  ret void
}

; Function Attrs: mustprogress nounwind uwtable
define linkonce_odr dso_local void @_ZN4pbrt13TaggedPointerIJNS_21CoatedDiffuseMaterialENS_23CoatedConductorMaterialENS_17ConductorMaterialENS_18DielectricMaterialENS_15DiffuseMaterialENS_27DiffuseTransmissionMaterialENS_12HairMaterialENS_16MeasuredMaterialENS_18SubsurfaceMaterialENS_22ThinDielectricMaterialENS_11MixMaterialEEEC2ERKSC_(ptr noundef nonnull align 8 dereferenceable(8) %0, ptr noundef nonnull align 8 dereferenceable(8) %1) unnamed_addr #8 comdat align 2 {
  %3 = alloca ptr, align 8
  %4 = alloca ptr, align 8
  store ptr %0, ptr %3, align 8, !tbaa !147
  store ptr %1, ptr %4, align 8, !tbaa !147
  %5 = load ptr, ptr %3, align 8
  %6 = getelementptr inbounds nuw %"class.pbrt::TaggedPointer.11", ptr %5, i32 0, i32 0
  store i64 0, ptr %6, align 8, !tbaa !149
  %7 = load ptr, ptr %4, align 8, !tbaa !147
  %8 = getelementptr inbounds nuw %"class.pbrt::TaggedPointer.11", ptr %7, i32 0, i32 0
  %9 = load i64, ptr %8, align 8, !tbaa !149
  %10 = getelementptr inbounds nuw %"class.pbrt::TaggedPointer.11", ptr %5, i32 0, i32 0
  store i64 %9, ptr %10, align 8, !tbaa !149
  ret void
}

; Function Attrs: mustprogress nounwind uwtable
define linkonce_odr dso_local void @_ZN4pbrt13TaggedPointerIJNS_6SphereENS_8CylinderENS_4DiskENS_8TriangleENS_13BilinearPatchENS_5CurveEEEC2ERKS7_(ptr noundef nonnull align 8 dereferenceable(8) %0, ptr noundef nonnull align 8 dereferenceable(8) %1) unnamed_addr #8 comdat align 2 {
  %3 = alloca ptr, align 8
  %4 = alloca ptr, align 8
  store ptr %0, ptr %3, align 8, !tbaa !143
  store ptr %1, ptr %4, align 8, !tbaa !143
  %5 = load ptr, ptr %3, align 8
  %6 = getelementptr inbounds nuw %"class.pbrt::TaggedPointer.10", ptr %5, i32 0, i32 0
  store i64 0, ptr %6, align 8, !tbaa !145
  %7 = load ptr, ptr %4, align 8, !tbaa !143
  %8 = getelementptr inbounds nuw %"class.pbrt::TaggedPointer.10", ptr %7, i32 0, i32 0
  %9 = load i64, ptr %8, align 8, !tbaa !145
  %10 = getelementptr inbounds nuw %"class.pbrt::TaggedPointer.10", ptr %5, i32 0, i32 0
  store i64 %9, ptr %10, align 8, !tbaa !145
  ret void
}

; Function Attrs: inlinehint mustprogress uwtable
define linkonce_odr dso_local void @_ZN4pbrt12FloatTextureC2ERKS0_(ptr noundef nonnull align 8 dereferenceable(8) %0, ptr noundef nonnull align 8 dereferenceable(8) %1) unnamed_addr #5 comdat align 2 {
  %3 = alloca ptr, align 8
  %4 = alloca ptr, align 8
  store ptr %0, ptr %3, align 8, !tbaa !32
  store ptr %1, ptr %4, align 8, !tbaa !32
  %5 = load ptr, ptr %3, align 8
  %6 = load ptr, ptr %4, align 8, !tbaa !32
  call void @_ZN4pbrt13TaggedPointerIJNS_17FloatImageTextureENS_20GPUFloatImageTextureENS_15FloatMixTextureENS_24FloatDirectionMixTextureENS_18FloatScaledTextureENS_20FloatConstantTextureENS_18FloatBilerpTextureENS_24FloatCheckerboardTextureENS_16FloatDotsTextureENS_10FBmTextureENS_16FloatPtexTextureENS_19GPUFloatPtexTextureENS_12WindyTextureENS_15WrinkledTextureEEEC2ERKSF_(ptr noundef nonnull align 8 dereferenceable(8) %5, ptr noundef nonnull align 8 dereferenceable(8) %6)
  ret void
}

; Function Attrs: inlinehint mustprogress uwtable
define linkonce_odr dso_local void @_ZN4pbrt15MediumInterfaceC2ERKS0_(ptr noundef nonnull align 8 dereferenceable(16) %0, ptr noundef nonnull align 8 dereferenceable(16) %1) unnamed_addr #5 comdat align 2 {
  %3 = alloca ptr, align 8
  %4 = alloca ptr, align 8
  store ptr %0, ptr %3, align 8, !tbaa !30
  store ptr %1, ptr %4, align 8, !tbaa !30
  %5 = load ptr, ptr %3, align 8
  %6 = getelementptr inbounds nuw %"struct.pbrt::MediumInterface", ptr %5, i32 0, i32 0
  %7 = load ptr, ptr %4, align 8, !tbaa !30
  %8 = getelementptr inbounds nuw %"struct.pbrt::MediumInterface", ptr %7, i32 0, i32 0
  call void @_ZN4pbrt6MediumC2ERKS0_(ptr noundef nonnull align 8 dereferenceable(8) %6, ptr noundef nonnull align 8 dereferenceable(8) %8)
  %9 = getelementptr inbounds nuw %"struct.pbrt::MediumInterface", ptr %5, i32 0, i32 1
  %10 = load ptr, ptr %4, align 8, !tbaa !30
  %11 = getelementptr inbounds nuw %"struct.pbrt::MediumInterface", ptr %10, i32 0, i32 1
  call void @_ZN4pbrt6MediumC2ERKS0_(ptr noundef nonnull align 8 dereferenceable(8) %9, ptr noundef nonnull align 8 dereferenceable(8) %11)
  ret void
}

; Function Attrs: inlinehint mustprogress uwtable
define linkonce_odr dso_local void @_ZN4pbrt5LightC2ERKS0_(ptr noundef nonnull align 8 dereferenceable(8) %0, ptr noundef nonnull align 8 dereferenceable(8) %1) unnamed_addr #5 comdat align 2 {
  %3 = alloca ptr, align 8
  %4 = alloca ptr, align 8
  store ptr %0, ptr %3, align 8, !tbaa !28
  store ptr %1, ptr %4, align 8, !tbaa !28
  %5 = load ptr, ptr %3, align 8
  %6 = load ptr, ptr %4, align 8, !tbaa !28
  call void @_ZN4pbrt13TaggedPointerIJNS_10PointLightENS_12DistantLightENS_15ProjectionLightENS_16GoniometricLightENS_9SpotLightENS_16DiffuseAreaLightENS_20UniformInfiniteLightENS_18ImageInfiniteLightENS_24PortalImageInfiniteLightEEEC2ERKSA_(ptr noundef nonnull align 8 dereferenceable(8) %5, ptr noundef nonnull align 8 dereferenceable(8) %6)
  ret void
}

; Function Attrs: inlinehint mustprogress uwtable
define linkonce_odr dso_local void @_ZN4pbrt8MaterialC2ERKS0_(ptr noundef nonnull align 8 dereferenceable(8) %0, ptr noundef nonnull align 8 dereferenceable(8) %1) unnamed_addr #5 comdat align 2 {
  %3 = alloca ptr, align 8
  %4 = alloca ptr, align 8
  store ptr %0, ptr %3, align 8, !tbaa !26
  store ptr %1, ptr %4, align 8, !tbaa !26
  %5 = load ptr, ptr %3, align 8
  %6 = load ptr, ptr %4, align 8, !tbaa !26
  call void @_ZN4pbrt13TaggedPointerIJNS_21CoatedDiffuseMaterialENS_23CoatedConductorMaterialENS_17ConductorMaterialENS_18DielectricMaterialENS_15DiffuseMaterialENS_27DiffuseTransmissionMaterialENS_12HairMaterialENS_16MeasuredMaterialENS_18SubsurfaceMaterialENS_22ThinDielectricMaterialENS_11MixMaterialEEEC2ERKSC_(ptr noundef nonnull align 8 dereferenceable(8) %5, ptr noundef nonnull align 8 dereferenceable(8) %6)
  ret void
}

; Function Attrs: inlinehint mustprogress uwtable
define linkonce_odr dso_local void @_ZN4pbrt5ShapeC2ERKS0_(ptr noundef nonnull align 8 dereferenceable(8) %0, ptr noundef nonnull align 8 dereferenceable(8) %1) unnamed_addr #5 comdat align 2 {
  %3 = alloca ptr, align 8
  %4 = alloca ptr, align 8
  store ptr %0, ptr %3, align 8, !tbaa !24
  store ptr %1, ptr %4, align 8, !tbaa !24
  %5 = load ptr, ptr %3, align 8
  %6 = load ptr, ptr %4, align 8, !tbaa !24
  call void @_ZN4pbrt13TaggedPointerIJNS_6SphereENS_8CylinderENS_4DiskENS_8TriangleENS_13BilinearPatchENS_5CurveEEEC2ERKS7_(ptr noundef nonnull align 8 dereferenceable(8) %5, ptr noundef nonnull align 8 dereferenceable(8) %6)
  ret void
}

; Function Attrs: mustprogress uwtable
define dso_local void @_ZN4pbrt18GeometricPrimitiveC2ENS_5ShapeENS_8MaterialENS_5LightERKNS_15MediumInterfaceENS_12FloatTextureE(ptr noundef nonnull align 8 dereferenceable(48) %0, ptr noundef %1, ptr noundef %2, ptr noundef %3, ptr noundef nonnull align 8 dereferenceable(16) %4, ptr noundef %5) unnamed_addr #1 align 2 {
  %7 = alloca ptr, align 8
  %8 = alloca ptr, align 8
  %9 = alloca ptr, align 8
  %10 = alloca ptr, align 8
  %11 = alloca ptr, align 8
  %12 = alloca ptr, align 8
  store ptr %0, ptr %7, align 8, !tbaa !22
  store ptr %1, ptr %8, align 8, !tbaa !24
  store ptr %2, ptr %9, align 8, !tbaa !26
  store ptr %3, ptr %10, align 8, !tbaa !28
  store ptr %4, ptr %11, align 8, !tbaa !30
  store ptr %5, ptr %12, align 8, !tbaa !32
  %13 = load ptr, ptr %7, align 8
  %14 = getelementptr inbounds nuw %"class.pbrt::GeometricPrimitive", ptr %13, i32 0, i32 0
  call void @_ZN4pbrt5ShapeC2ERKS0_(ptr noundef nonnull align 8 dereferenceable(8) %14, ptr noundef nonnull align 8 dereferenceable(8) %1)
  %15 = getelementptr inbounds nuw %"class.pbrt::GeometricPrimitive", ptr %13, i32 0, i32 1
  call void @_ZN4pbrt8MaterialC2ERKS0_(ptr noundef nonnull align 8 dereferenceable(8) %15, ptr noundef nonnull align 8 dereferenceable(8) %2)
  %16 = getelementptr inbounds nuw %"class.pbrt::GeometricPrimitive", ptr %13, i32 0, i32 2
  call void @_ZN4pbrt5LightC2ERKS0_(ptr noundef nonnull align 8 dereferenceable(8) %16, ptr noundef nonnull align 8 dereferenceable(8) %3)
  %17 = getelementptr inbounds nuw %"class.pbrt::GeometricPrimitive", ptr %13, i32 0, i32 3
  %18 = load ptr, ptr %11, align 8, !tbaa !30
  call void @_ZN4pbrt15MediumInterfaceC2ERKS0_(ptr noundef nonnull align 8 dereferenceable(16) %17, ptr noundef nonnull align 8 dereferenceable(16) %18)
  %19 = getelementptr inbounds nuw %"class.pbrt::GeometricPrimitive", ptr %13, i32 0, i32 4
  call void @_ZN4pbrt12FloatTextureC2ERKS0_(ptr noundef nonnull align 8 dereferenceable(8) %19, ptr noundef nonnull align 8 dereferenceable(8) %5)
  %20 = call align 8 ptr @llvm.threadlocal.address.p0(ptr align 8 @_ZN4pbrtL15primitiveMemoryE)
  %21 = load i64, ptr %20, align 8, !tbaa !34
  %22 = add i64 %21, 48
  store i64 %22, ptr %20, align 8, !tbaa !34
  ret void
}