; Function Attrs: mustprogress nofree norecurse nosync nounwind willreturn memory(readwrite, inaccessiblemem: none) uwtable
define dso_local void @_ZN4pbrt18GeometricPrimitiveC2ENS_5ShapeENS_8MaterialENS_5LightERKNS_15MediumInterfaceENS_12FloatTextureE(ptr noundef nonnull writeonly align 8 captures(none) dereferenceable(48) initializes((0, 48)) %0, ptr noundef readonly captures(none) %1, ptr noundef readonly captures(none) %2, ptr noundef readonly captures(none) %3, ptr noundef nonnull readonly align 8 captures(none) dereferenceable(16) %4, ptr noundef readonly captures(none) %5) unnamed_addr #3 align 2 {
  store i64 0, ptr %0, align 8, !tbaa !22
  %7 = load i64, ptr %1, align 8, !tbaa !22
  store i64 %7, ptr %0, align 8, !tbaa !22
  %8 = getelementptr inbounds nuw i8, ptr %0, i64 8
  store i64 0, ptr %8, align 8, !tbaa !24
  %9 = load i64, ptr %2, align 8, !tbaa !24
  store i64 %9, ptr %8, align 8, !tbaa !24
  %10 = getelementptr inbounds nuw i8, ptr %0, i64 16
  store i64 0, ptr %10, align 8, !tbaa !26
  %11 = load i64, ptr %3, align 8, !tbaa !26
  store i64 %11, ptr %10, align 8, !tbaa !26
  %12 = getelementptr inbounds nuw i8, ptr %0, i64 24
  store i64 0, ptr %12, align 8, !tbaa !28
  %13 = load i64, ptr %4, align 8, !tbaa !28
  store i64 %13, ptr %12, align 8, !tbaa !28
  %14 = getelementptr inbounds nuw i8, ptr %0, i64 32
  %15 = getelementptr inbounds nuw i8, ptr %4, i64 8
  store i64 0, ptr %14, align 8, !tbaa !28
  %16 = load i64, ptr %15, align 8, !tbaa !28
  store i64 %16, ptr %14, align 8, !tbaa !28
  %17 = getelementptr inbounds nuw i8, ptr %0, i64 40
  store i64 0, ptr %17, align 8, !tbaa !30
  %18 = load i64, ptr %5, align 8, !tbaa !30
  store i64 %18, ptr %17, align 8, !tbaa !30
  %19 = tail call align 8 ptr @llvm.threadlocal.address.p0(ptr align 8 @_ZN4pbrtL15primitiveMemoryE)
  %20 = load i64, ptr %19, align 8, !tbaa !32
  %21 = add i64 %20, 48
  store i64 %21, ptr %19, align 8, !tbaa !32
  ret void
}